; Function Attrs: mustprogress nounwind uwtable
define void @_ZN14colvarbias_albD2Ev(ptr noundef nonnull align 8 dereferenceable(541) %0, ptr noundef %1) unnamed_addr #1 align 2 personality ptr @__gxx_personality_v0 {
  %3 = load ptr, ptr %1, align 8
  store ptr %3, ptr %0, align 8
  %4 = getelementptr inbounds i8, ptr %1, i64 32
  %5 = load ptr, ptr %4, align 8
  %6 = getelementptr i8, ptr %3, i64 -24
  %7 = load i64, ptr %6, align 8
  %8 = getelementptr inbounds i8, ptr %0, i64 %7
  store ptr %5, ptr %8, align 8
  %9 = getelementptr inbounds i8, ptr %1, i64 40
  %10 = load ptr, ptr %9, align 8
  %11 = load ptr, ptr %0, align 8
  %12 = getelementptr i8, ptr %11, i64 -32
  %13 = load i64, ptr %12, align 8
  %14 = getelementptr inbounds i8, ptr %0, i64 %13
  store ptr %10, ptr %14, align 8
  %15 = getelementptr inbounds i8, ptr %0, i64 512
  %16 = load ptr, ptr %15, align 8
  %.not.i.i.i = icmp eq ptr %16, null
  br i1 %.not.i.i.i, label %_ZNSt6vectorIdSaIdEED2Ev.exit, label %17

17:                                               ; preds = %2
  tail call void @_ZdlPv(ptr noundef nonnull %16) #20
  br label %_ZNSt6vectorIdSaIdEED2Ev.exit

_ZNSt6vectorIdSaIdEED2Ev.exit:                    ; preds = %2, %17
  %18 = getelementptr inbounds i8, ptr %0, i64 488
  %19 = load ptr, ptr %18, align 8
  %.not.i.i.i2 = icmp eq ptr %19, null
  br i1 %.not.i.i.i2, label %_ZNSt6vectorIdSaIdEED2Ev.exit3, label %20

20:                                               ; preds = %_ZNSt6vectorIdSaIdEED2Ev.exit
  tail call void @_ZdlPv(ptr noundef nonnull %19) #20
  br label %_ZNSt6vectorIdSaIdEED2Ev.exit3

_ZNSt6vectorIdSaIdEED2Ev.exit3:                   ; preds = %_ZNSt6vectorIdSaIdEED2Ev.exit, %20
  %21 = getelementptr inbounds i8, ptr %0, i64 464
  %22 = load ptr, ptr %21, align 8
  %.not.i.i.i4 = icmp eq ptr %22, null
  br i1 %.not.i.i.i4, label %_ZNSt6vectorIdSaIdEED2Ev.exit5, label %23

23:                                               ; preds = %_ZNSt6vectorIdSaIdEED2Ev.exit3
  tail call void @_ZdlPv(ptr noundef nonnull %22) #20
  br label %_ZNSt6vectorIdSaIdEED2Ev.exit5

_ZNSt6vectorIdSaIdEED2Ev.exit5:                   ; preds = %_ZNSt6vectorIdSaIdEED2Ev.exit3, %23
  %24 = getelementptr inbounds i8, ptr %0, i64 440
  %25 = load ptr, ptr %24, align 8
  %.not.i.i.i6 = icmp eq ptr %25, null
  br i1 %.not.i.i.i6, label %_ZNSt6vectorIdSaIdEED2Ev.exit7, label %26

26:                                               ; preds = %_ZNSt6vectorIdSaIdEED2Ev.exit5
  tail call void @_ZdlPv(ptr noundef nonnull %25) #20
  br label %_ZNSt6vectorIdSaIdEED2Ev.exit7

_ZNSt6vectorIdSaIdEED2Ev.exit7:                   ; preds = %_ZNSt6vectorIdSaIdEED2Ev.exit5, %26
  %27 = getelementptr inbounds i8, ptr %0, i64 416
  %28 = load ptr, ptr %27, align 8
  %.not.i.i.i8 = icmp eq ptr %28, null
  br i1 %.not.i.i.i8, label %_ZNSt6vectorIdSaIdEED2Ev.exit9, label %29

29:                                               ; preds = %_ZNSt6vectorIdSaIdEED2Ev.exit7
  tail call void @_ZdlPv(ptr noundef nonnull %28) #20
  br label %_ZNSt6vectorIdSaIdEED2Ev.exit9

_ZNSt6vectorIdSaIdEED2Ev.exit9:                   ; preds = %_ZNSt6vectorIdSaIdEED2Ev.exit7, %29
  %30 = getelementptr inbounds i8, ptr %0, i64 392
  %31 = load ptr, ptr %30, align 8
  %.not.i.i.i10 = icmp eq ptr %31, null
  br i1 %.not.i.i.i10, label %_ZNSt6vectorIdSaIdEED2Ev.exit11, label %32

32:                                               ; preds = %_ZNSt6vectorIdSaIdEED2Ev.exit9
  tail call void @_ZdlPv(ptr noundef nonnull %31) #20
  br label %_ZNSt6vectorIdSaIdEED2Ev.exit11

_ZNSt6vectorIdSaIdEED2Ev.exit11:                  ; preds = %_ZNSt6vectorIdSaIdEED2Ev.exit9, %32
  %33 = getelementptr inbounds i8, ptr %0, i64 360
  %34 = load ptr, ptr %33, align 8
  %.not.i.i.i12 = icmp eq ptr %34, null
  br i1 %.not.i.i.i12, label %_ZNSt6vectorIdSaIdEED2Ev.exit13, label %35

35:                                               ; preds = %_ZNSt6vectorIdSaIdEED2Ev.exit11
  tail call void @_ZdlPv(ptr noundef nonnull %34) #20
  br label %_ZNSt6vectorIdSaIdEED2Ev.exit13

_ZNSt6vectorIdSaIdEED2Ev.exit13:                  ; preds = %_ZNSt6vectorIdSaIdEED2Ev.exit11, %35
  %36 = getelementptr inbounds i8, ptr %0, i64 336
  %37 = load ptr, ptr %36, align 8
  %.not.i.i.i14 = icmp eq ptr %37, null
  br i1 %.not.i.i.i14, label %_ZNSt6vectorIdSaIdEED2Ev.exit15, label %38

38:                                               ; preds = %_ZNSt6vectorIdSaIdEED2Ev.exit13
  tail call void @_ZdlPv(ptr noundef nonnull %37) #20
  br label %_ZNSt6vectorIdSaIdEED2Ev.exit15

_ZNSt6vectorIdSaIdEED2Ev.exit15:                  ; preds = %_ZNSt6vectorIdSaIdEED2Ev.exit13, %38
  %39 = getelementptr inbounds i8, ptr %0, i64 312
  tail call void @_ZNSt6vectorI11colvarvalueSaIS0_EED2Ev(ptr noundef nonnull align 8 dereferenceable(24) %39) #21
  %40 = getelementptr inbounds i8, ptr %1, i64 8
  tail call void @_ZN10colvarbiasD2Ev(ptr noundef nonnull align 8 dereferenceable(312) %0, ptr noundef nonnull %40) #21
  ret void
}